target datalayout = "e-m:e-p270:32:32-p271:32:32-p272:64:64-i64:64-i128:128-f80:128-n8:16:32:64-S128"
target triple = "x86_64-pc-linux-gnu"

%struct.CVodeMemRec = type { double, ptr, ptr, i32, i32, i32, double, double, ptr, i32, ptr, ptr, i32, ptr, i32, i32, double, double, ptr, i32, i32, i32, ptr, ptr, ptr, i32, i32, ptr, ptr, ptr, i32, double, i32, i32, double, ptr, ptr, i32, ptr, ptr, i32, i32, i32, double, ptr, ptr, [13 x ptr], ptr, ptr, ptr, ptr, ptr, [13 x ptr], ptr, ptr, ptr, ptr, [13 x ptr], ptr, ptr, ptr, ptr, ptr, i32, [13 x ptr], ptr, ptr, ptr, ptr, ptr, i32, double, i32, i32, i32, i32, i32, double, double, double, double, double, double, double, double, [14 x double], [6 x double], [13 x double], double, double, double, double, double, double, double, double, double, double, double, i32, ptr, i32, i64, i32, i32, i32, i32, i32, double, double, double, i64, i64, i64, i64, i64, i64, i64, i64, i64, ptr, i64, i64, ptr, i64, i64, i64, i64, i64, i64, i32, i64, i64, i64, i64, i64, i64, double, double, double, ptr, ptr, ptr, ptr, ptr, i32, i32, i64, double, double, double, i32, double, i32, i32, i32, i32, i32, i32, i32, i32, i32, i32, i32, i32, i32, i32, i32, i32, ptr, ptr, ptr, i32, [6 x [4 x double]], i32, i64, ptr, i32, ptr, ptr, double, double, double, ptr, ptr, ptr, double, double, i32, i32, i64, ptr, i32, i32, ptr, i32 }
%struct._generic_N_Vector = type { ptr, ptr }
%struct._generic_N_Vector_Ops = type { ptr, ptr, ptr, ptr, ptr, ptr, ptr, ptr, ptr, ptr, ptr, ptr, ptr, ptr, ptr, ptr, ptr, ptr, ptr, ptr, ptr, ptr, ptr, ptr, ptr }
%struct.CVDlsMemRec = type { i32, i64, i64, i64, i64, i32, ptr, ptr, ptr, ptr, ptr, ptr, ptr, i64, i64, i64, i64 }

@.str = private unnamed_addr constant [9 x i8] c"CVSDENSE\00", align 1
@.str.1 = private unnamed_addr constant [8 x i8] c"CVDense\00", align 1
@.str.2 = private unnamed_addr constant [27 x i8] c"Integrator memory is NULL.\00", align 1
@.str.3 = private unnamed_addr constant [48 x i8] c"A required vector operation is not implemented.\00", align 1
@.str.4 = private unnamed_addr constant [25 x i8] c"A memory request failed.\00", align 1

; Function Attrs: nounwind uwtable
define i32 @CVDense(ptr noundef %0, i64 noundef %1) #0 {
  %3 = alloca i32, align 4
  %4 = alloca ptr, align 8
  %5 = alloca i64, align 8
  %6 = alloca ptr, align 8
  %7 = alloca ptr, align 8
  %8 = alloca i32, align 4
  store ptr %0, ptr %4, align 8, !tbaa !3
  store i64 %1, ptr %5, align 8, !tbaa !7
  call void @llvm.lifetime.start.p0(i64 8, ptr %6) #5
  call void @llvm.lifetime.start.p0(i64 8, ptr %7) #5
  %9 = load ptr, ptr %4, align 8, !tbaa !3
  %10 = icmp eq ptr %9, null
  br i1 %10, label %11, label %12

11:                                               ; preds = %2
  call void (ptr, i32, ptr, ptr, ptr, ...) @cvProcessError(ptr noundef null, i32 noundef -1, ptr noundef @.str, ptr noundef @.str.1, ptr noundef @.str.2)
  store i32 -1, ptr %3, align 4
  store i32 1, ptr %8, align 4
  br label %129

12:                                               ; preds = %2
  %13 = load ptr, ptr %4, align 8, !tbaa !3
  store ptr %13, ptr %6, align 8, !tbaa !9
  %14 = load ptr, ptr %6, align 8, !tbaa !9
  %15 = getelementptr inbounds nuw %struct.CVodeMemRec, ptr %14, i32 0, i32 50
  %16 = load ptr, ptr %15, align 8, !tbaa !11
  %17 = getelementptr inbounds nuw %struct._generic_N_Vector, ptr %16, i32 0, i32 1
  %18 = load ptr, ptr %17, align 8, !tbaa !22
  %19 = getelementptr inbounds nuw %struct._generic_N_Vector_Ops, ptr %18, i32 0, i32 4
  %20 = load ptr, ptr %19, align 8, !tbaa !25
  %21 = icmp eq ptr %20, null
  br i1 %21, label %31, label %22

22:                                               ; preds = %12
  %23 = load ptr, ptr %6, align 8, !tbaa !9
  %24 = getelementptr inbounds nuw %struct.CVodeMemRec, ptr %23, i32 0, i32 50
  %25 = load ptr, ptr %24, align 8, !tbaa !11
  %26 = getelementptr inbounds nuw %struct._generic_N_Vector, ptr %25, i32 0, i32 1
  %27 = load ptr, ptr %26, align 8, !tbaa !22
  %28 = getelementptr inbounds nuw %struct._generic_N_Vector_Ops, ptr %27, i32 0, i32 5
  %29 = load ptr, ptr %28, align 8, !tbaa !27
  %30 = icmp eq ptr %29, null
  br i1 %30, label %31, label %33

31:                                               ; preds = %22, %12
  %32 = load ptr, ptr %6, align 8, !tbaa !9
  call void (ptr, i32, ptr, ptr, ptr, ...) @cvProcessError(ptr noundef %32, i32 noundef -3, ptr noundef @.str, ptr noundef @.str.1, ptr noundef @.str.3)
  store i32 -3, ptr %3, align 4
  store i32 1, ptr %8, align 4
  br label %129

33:                                               ; preds = %22
  %34 = load ptr, ptr %6, align 8, !tbaa !9
  %35 = getelementptr inbounds nuw %struct.CVodeMemRec, ptr %34, i32 0, i32 143
  %36 = load ptr, ptr %35, align 8, !tbaa !28
  %37 = icmp ne ptr %36, null
  br i1 %37, label %38, label %43

38:                                               ; preds = %33
  %39 = load ptr, ptr %6, align 8, !tbaa !9
  %40 = getelementptr inbounds nuw %struct.CVodeMemRec, ptr %39, i32 0, i32 143
  %41 = load ptr, ptr %40, align 8, !tbaa !28
  %42 = load ptr, ptr %6, align 8, !tbaa !9
  call void %41(ptr noundef %42)
  br label %43

43:                                               ; preds = %38, %33
  %44 = load ptr, ptr %6, align 8, !tbaa !9
  %45 = getelementptr inbounds nuw %struct.CVodeMemRec, ptr %44, i32 0, i32 140
  store ptr @cvDenseInit, ptr %45, align 8, !tbaa !29
  %46 = load ptr, ptr %6, align 8, !tbaa !9
  %47 = getelementptr inbounds nuw %struct.CVodeMemRec, ptr %46, i32 0, i32 141
  store ptr @cvDenseSetup, ptr %47, align 8, !tbaa !30
  %48 = load ptr, ptr %6, align 8, !tbaa !9
  %49 = getelementptr inbounds nuw %struct.CVodeMemRec, ptr %48, i32 0, i32 142
  store ptr @cvDenseSolve, ptr %49, align 8, !tbaa !31
  %50 = load ptr, ptr %6, align 8, !tbaa !9
  %51 = getelementptr inbounds nuw %struct.CVodeMemRec, ptr %50, i32 0, i32 143
  store ptr @cvDenseFree, ptr %51, align 8, !tbaa !28
  store ptr null, ptr %7, align 8, !tbaa !32
  %52 = call noalias ptr @malloc(i64 noundef 136) #6
  store ptr %52, ptr %7, align 8, !tbaa !32
  %53 = load ptr, ptr %7, align 8, !tbaa !32
  %54 = icmp eq ptr %53, null
  br i1 %54, label %55, label %57

55:                                               ; preds = %43
  %56 = load ptr, ptr %6, align 8, !tbaa !9
  call void (ptr, i32, ptr, ptr, ptr, ...) @cvProcessError(ptr noundef %56, i32 noundef -4, ptr noundef @.str, ptr noundef @.str.1, ptr noundef @.str.4)
  store i32 -4, ptr %3, align 4
  store i32 1, ptr %8, align 4
  br label %129

57:                                               ; preds = %43
  %58 = load ptr, ptr %7, align 8, !tbaa !32
  %59 = getelementptr inbounds nuw %struct.CVDlsMemRec, ptr %58, i32 0, i32 0
  store i32 1, ptr %59, align 8, !tbaa !34
  %60 = load ptr, ptr %7, align 8, !tbaa !32
  %61 = getelementptr inbounds nuw %struct.CVDlsMemRec, ptr %60, i32 0, i32 5
  store i32 1, ptr %61, align 8, !tbaa !37
  %62 = load ptr, ptr %7, align 8, !tbaa !32
  %63 = getelementptr inbounds nuw %struct.CVDlsMemRec, ptr %62, i32 0, i32 6
  store ptr null, ptr %63, align 8, !tbaa !38
  %64 = load ptr, ptr %7, align 8, !tbaa !32
  %65 = getelementptr inbounds nuw %struct.CVDlsMemRec, ptr %64, i32 0, i32 8
  store ptr null, ptr %65, align 8, !tbaa !39
  %66 = load ptr, ptr %7, align 8, !tbaa !32
  %67 = getelementptr inbounds nuw %struct.CVDlsMemRec, ptr %66, i32 0, i32 16
  store i64 0, ptr %67, align 8, !tbaa !40
  %68 = load ptr, ptr %6, align 8, !tbaa !9
  %69 = getelementptr inbounds nuw %struct.CVodeMemRec, ptr %68, i32 0, i32 158
  store i32 1, ptr %69, align 4, !tbaa !41
  %70 = load i64, ptr %5, align 8, !tbaa !7
  %71 = load ptr, ptr %7, align 8, !tbaa !32
  %72 = getelementptr inbounds nuw %struct.CVDlsMemRec, ptr %71, i32 0, i32 1
  store i64 %70, ptr %72, align 8, !tbaa !42
  %73 = load ptr, ptr %7, align 8, !tbaa !32
  %74 = getelementptr inbounds nuw %struct.CVDlsMemRec, ptr %73, i32 0, i32 9
  store ptr null, ptr %74, align 8, !tbaa !43
  %75 = load i64, ptr %5, align 8, !tbaa !7
  %76 = load i64, ptr %5, align 8, !tbaa !7
  %77 = call ptr @NewDenseMat(i64 noundef %75, i64 noundef %76)
  %78 = load ptr, ptr %7, align 8, !tbaa !32
  %79 = getelementptr inbounds nuw %struct.CVDlsMemRec, ptr %78, i32 0, i32 9
  store ptr %77, ptr %79, align 8, !tbaa !43
  %80 = load ptr, ptr %7, align 8, !tbaa !32
  %81 = getelementptr inbounds nuw %struct.CVDlsMemRec, ptr %80, i32 0, i32 9
  %82 = load ptr, ptr %81, align 8, !tbaa !43
  %83 = icmp eq ptr %82, null
  br i1 %83, label %84, label %87

84:                                               ; preds = %57
  %85 = load ptr, ptr %6, align 8, !tbaa !9
  call void (ptr, i32, ptr, ptr, ptr, ...) @cvProcessError(ptr noundef %85, i32 noundef -4, ptr noundef @.str, ptr noundef @.str.1, ptr noundef @.str.4)
  %86 = load ptr, ptr %7, align 8, !tbaa !32
  call void @free(ptr noundef %86) #5
  store ptr null, ptr %7, align 8, !tbaa !32
  store i32 -4, ptr %3, align 4
  store i32 1, ptr %8, align 4
  br label %129

87:                                               ; preds = %57
  %88 = load ptr, ptr %7, align 8, !tbaa !32
  %89 = getelementptr inbounds nuw %struct.CVDlsMemRec, ptr %88, i32 0, i32 10
  store ptr null, ptr %89, align 8, !tbaa !44
  %90 = load i64, ptr %5, align 8, !tbaa !7
  %91 = load i64, ptr %5, align 8, !tbaa !7
  %92 = call ptr @NewDenseMat(i64 noundef %90, i64 noundef %91)
  %93 = load ptr, ptr %7, align 8, !tbaa !32
  %94 = getelementptr inbounds nuw %struct.CVDlsMemRec, ptr %93, i32 0, i32 10
  store ptr %92, ptr %94, align 8, !tbaa !44
  %95 = load ptr, ptr %7, align 8, !tbaa !32
  %96 = getelementptr inbounds nuw %struct.CVDlsMemRec, ptr %95, i32 0, i32 10
  %97 = load ptr, ptr %96, align 8, !tbaa !44
  %98 = icmp eq ptr %97, null
  br i1 %98, label %99, label %105

99:                                               ; preds = %87
  %100 = load ptr, ptr %6, align 8, !tbaa !9
  call void (ptr, i32, ptr, ptr, ptr, ...) @cvProcessError(ptr noundef %100, i32 noundef -4, ptr noundef @.str, ptr noundef @.str.1, ptr noundef @.str.4)
  %101 = load ptr, ptr %7, align 8, !tbaa !32
  %102 = getelementptr inbounds nuw %struct.CVDlsMemRec, ptr %101, i32 0, i32 9
  %103 = load ptr, ptr %102, align 8, !tbaa !43
  call void @DestroyMat(ptr noundef %103)
  %104 = load ptr, ptr %7, align 8, !tbaa !32
  call void @free(ptr noundef %104) #5
  store ptr null, ptr %7, align 8, !tbaa !32
  store i32 -4, ptr %3, align 4
  store i32 1, ptr %8, align 4
  br label %129

105:                                              ; preds = %87
  %106 = load ptr, ptr %7, align 8, !tbaa !32
  %107 = getelementptr inbounds nuw %struct.CVDlsMemRec, ptr %106, i32 0, i32 12
  store ptr null, ptr %107, align 8, !tbaa !45
  %108 = load i64, ptr %5, align 8, !tbaa !7
  %109 = call ptr @NewLintArray(i64 noundef %108)
  %110 = load ptr, ptr %7, align 8, !tbaa !32
  %111 = getelementptr inbounds nuw %struct.CVDlsMemRec, ptr %110, i32 0, i32 12
  store ptr %109, ptr %111, align 8, !tbaa !45
  %112 = load ptr, ptr %7, align 8, !tbaa !32
  %113 = getelementptr inbounds nuw %struct.CVDlsMemRec, ptr %112, i32 0, i32 12
  %114 = load ptr, ptr %113, align 8, !tbaa !45
  %115 = icmp eq ptr %114, null
  br i1 %115, label %116, label %125

116:                                              ; preds = %105
  %117 = load ptr, ptr %6, align 8, !tbaa !9
  call void (ptr, i32, ptr, ptr, ptr, ...) @cvProcessError(ptr noundef %117, i32 noundef -4, ptr noundef @.str, ptr noundef @.str.1, ptr noundef @.str.4)
  %118 = load ptr, ptr %7, align 8, !tbaa !32
  %119 = getelementptr inbounds nuw %struct.CVDlsMemRec, ptr %118, i32 0, i32 9
  %120 = load ptr, ptr %119, align 8, !tbaa !43
  call void @DestroyMat(ptr noundef %120)
  %121 = load ptr, ptr %7, align 8, !tbaa !32
  %122 = getelementptr inbounds nuw %struct.CVDlsMemRec, ptr %121, i32 0, i32 10
  %123 = load ptr, ptr %122, align 8, !tbaa !44
  call void @DestroyMat(ptr noundef %123)
  %124 = load ptr, ptr %7, align 8, !tbaa !32
  call void @free(ptr noundef %124) #5
  store ptr null, ptr %7, align 8, !tbaa !32
  store i32 -4, ptr %3, align 4
  store i32 1, ptr %8, align 4
  br label %129

125:                                              ; preds = %105
  %126 = load ptr, ptr %7, align 8, !tbaa !32
  %127 = load ptr, ptr %6, align 8, !tbaa !9
  %128 = getelementptr inbounds nuw %struct.CVodeMemRec, ptr %127, i32 0, i32 144
  store ptr %126, ptr %128, align 8, !tbaa !46
  store i32 0, ptr %3, align 4
  store i32 1, ptr %8, align 4
  br label %129

129:                                              ; preds = %125, %116, %99, %84, %55, %31, %11
  call void @llvm.lifetime.end.p0(i64 8, ptr %7) #5
  call void @llvm.lifetime.end.p0(i64 8, ptr %6) #5
  %130 = load i32, ptr %3, align 4
  ret i32 %130
}