; Function Attrs: nounwind uwtable
define range(i32 -4, 1) i32 @CVDense(ptr noundef %0, i64 noundef %1) local_unnamed_addr #0 {
  %3 = icmp eq ptr %0, null
  br i1 %3, label %4, label %5

4:                                                ; preds = %2
  tail call void (ptr, i32, ptr, ptr, ptr, ...) @cvProcessError(ptr noundef null, i32 noundef -1, ptr noundef nonnull @.str, ptr noundef nonnull @.str.1, ptr noundef nonnull @.str.2) #7
  br label %52

5:                                                ; preds = %2
  %6 = getelementptr inbounds nuw i8, ptr %0, i64 448
  %7 = load ptr, ptr %6, align 8, !tbaa !3
  %8 = getelementptr inbounds nuw i8, ptr %7, i64 8
  %9 = load ptr, ptr %8, align 8, !tbaa !18
  %10 = getelementptr inbounds nuw i8, ptr %9, i64 32
  %11 = load ptr, ptr %10, align 8, !tbaa !21
  %12 = icmp eq ptr %11, null
  br i1 %12, label %17, label %13

13:                                               ; preds = %5
  %14 = getelementptr inbounds nuw i8, ptr %9, i64 40
  %15 = load ptr, ptr %14, align 8, !tbaa !23
  %16 = icmp eq ptr %15, null
  br i1 %16, label %17, label %18

17:                                               ; preds = %13, %5
  tail call void (ptr, i32, ptr, ptr, ptr, ...) @cvProcessError(ptr noundef nonnull %0, i32 noundef -3, ptr noundef nonnull @.str, ptr noundef nonnull @.str.1, ptr noundef nonnull @.str.3) #7
  br label %52

18:                                               ; preds = %13
  %19 = getelementptr inbounds nuw i8, ptr %0, i64 1688
  %20 = load ptr, ptr %19, align 8, !tbaa !24
  %.not = icmp eq ptr %20, null
  br i1 %.not, label %22, label %21

21:                                               ; preds = %18
  tail call void %20(ptr noundef nonnull %0) #7
  br label %22

22:                                               ; preds = %21, %18
  %23 = getelementptr inbounds nuw i8, ptr %0, i64 1664
  store ptr @cvDenseInit, ptr %23, align 8, !tbaa !25
  %24 = getelementptr inbounds nuw i8, ptr %0, i64 1672
  store ptr @cvDenseSetup, ptr %24, align 8, !tbaa !26
  %25 = getelementptr inbounds nuw i8, ptr %0, i64 1680
  store ptr @cvDenseSolve, ptr %25, align 8, !tbaa !27
  store ptr @cvDenseFree, ptr %19, align 8, !tbaa !24
  %26 = tail call noalias dereferenceable_or_null(136) ptr @malloc(i64 noundef 136) #8
  %27 = icmp eq ptr %26, null
  br i1 %27, label %28, label %29

28:                                               ; preds = %22
  tail call void (ptr, i32, ptr, ptr, ptr, ...) @cvProcessError(ptr noundef nonnull %0, i32 noundef -4, ptr noundef nonnull @.str, ptr noundef nonnull @.str.1, ptr noundef nonnull @.str.4) #7
  br label %52

29:                                               ; preds = %22
  store i32 1, ptr %26, align 8, !tbaa !28
  %30 = getelementptr inbounds nuw i8, ptr %26, i64 40
  store i32 1, ptr %30, align 8, !tbaa !31
  %31 = getelementptr inbounds nuw i8, ptr %26, i64 48
  store ptr null, ptr %31, align 8, !tbaa !32
  %32 = getelementptr inbounds nuw i8, ptr %26, i64 64
  store ptr null, ptr %32, align 8, !tbaa !33
  %33 = getelementptr inbounds nuw i8, ptr %26, i64 128
  store i64 0, ptr %33, align 8, !tbaa !34
  %34 = getelementptr inbounds nuw i8, ptr %0, i64 1780
  store i32 1, ptr %34, align 4, !tbaa !35
  %35 = getelementptr inbounds nuw i8, ptr %26, i64 8
  store i64 %1, ptr %35, align 8, !tbaa !36
  %36 = getelementptr inbounds nuw i8, ptr %26, i64 72
  %37 = tail call ptr @NewDenseMat(i64 noundef %1, i64 noundef %1) #7
  store ptr %37, ptr %36, align 8, !tbaa !37
  %38 = icmp eq ptr %37, null
  br i1 %38, label %39, label %40

39:                                               ; preds = %29
  tail call void (ptr, i32, ptr, ptr, ptr, ...) @cvProcessError(ptr noundef nonnull %0, i32 noundef -4, ptr noundef nonnull @.str, ptr noundef nonnull @.str.1, ptr noundef nonnull @.str.4) #7
  tail call void @free(ptr noundef nonnull %26) #7
  br label %52

40:                                               ; preds = %29
  %41 = getelementptr inbounds nuw i8, ptr %26, i64 80
  %42 = tail call ptr @NewDenseMat(i64 noundef %1, i64 noundef %1) #7
  store ptr %42, ptr %41, align 8, !tbaa !38
  %43 = icmp eq ptr %42, null
  br i1 %43, label %44, label %45

44:                                               ; preds = %40
  tail call void (ptr, i32, ptr, ptr, ptr, ...) @cvProcessError(ptr noundef nonnull %0, i32 noundef -4, ptr noundef nonnull @.str, ptr noundef nonnull @.str.1, ptr noundef nonnull @.str.4) #7
  tail call void @DestroyMat(ptr noundef nonnull %37) #7
  tail call void @free(ptr noundef nonnull %26) #7
  br label %52

45:                                               ; preds = %40
  %46 = getelementptr inbounds nuw i8, ptr %26, i64 96
  %47 = tail call ptr @NewLintArray(i64 noundef %1) #7
  store ptr %47, ptr %46, align 8, !tbaa !39
  %48 = icmp eq ptr %47, null
  br i1 %48, label %49, label %50

49:                                               ; preds = %45
  tail call void (ptr, i32, ptr, ptr, ptr, ...) @cvProcessError(ptr noundef nonnull %0, i32 noundef -4, ptr noundef nonnull @.str, ptr noundef nonnull @.str.1, ptr noundef nonnull @.str.4) #7
  tail call void @DestroyMat(ptr noundef nonnull %37) #7
  tail call void @DestroyMat(ptr noundef nonnull %42) #7
  tail call void @free(ptr noundef nonnull %26) #7
  br label %52

50:                                               ; preds = %45
  %51 = getelementptr inbounds nuw i8, ptr %0, i64 1696
  store ptr %26, ptr %51, align 8, !tbaa !40
  br label %52

52:                                               ; preds = %50, %49, %44, %39, %28, %17, %4
  %.0 = phi i32 [ -1, %4 ], [ -3, %17 ], [ -4, %28 ], [ -4, %39 ], [ -4, %44 ], [ -4, %49 ], [ 0, %50 ]
  ret i32 %.0
}